target datalayout = "e-m:e-p270:32:32-p271:32:32-p272:64:64-i64:64-i128:128-f80:128-n8:16:32:64-S128"
target triple = "x86_64-pc-linux-gnu"

%"class.testing::internal::ThreadLocal" = type { i32, %"class.std::unique_ptr.48" }
%"class.std::unique_ptr.48" = type { %"struct.std::__uniq_ptr_data.49" }
%"struct.std::__uniq_ptr_data.49" = type { %"class.std::__uniq_ptr_impl.50" }
%"class.std::__uniq_ptr_impl.50" = type { %"class.std::tuple.51" }
%"class.std::tuple.51" = type { %"struct.std::_Tuple_impl.52" }
%"struct.std::_Tuple_impl.52" = type { %"struct.std::_Head_base.55" }
%"struct.std::_Head_base.55" = type { ptr }
%"class.testing::InSequence" = type { i8 }

@_ZN7testing8internal25g_gmock_implicit_sequenceE = global %"class.testing::internal::ThreadLocal" zeroinitializer, align 8

; Function Attrs: mustprogress uwtable
define linkonce_odr noundef ptr @_ZN7testing8internal11ThreadLocalIPNS_8SequenceEE7pointerEv(ptr noundef nonnull align 8 dereferenceable(16) %0) #4 comdat align 2 {
  %2 = alloca ptr, align 8
  store ptr %0, ptr %2, align 8, !tbaa !236
  %3 = load ptr, ptr %2, align 8
  %4 = call noundef ptr @_ZNK7testing8internal11ThreadLocalIPNS_8SequenceEE16GetOrCreateValueEv(ptr noundef nonnull align 8 dereferenceable(16) %3)
  ret ptr %4
}

; Function Attrs: mustprogress uwtable
define linkonce_odr noundef ptr @_ZNK7testing8internal11ThreadLocalIPNS_8SequenceEE7pointerEv(ptr noundef nonnull align 8 dereferenceable(16) %0) #4 comdat align 2 {
  %2 = alloca ptr, align 8
  store ptr %0, ptr %2, align 8, !tbaa !236
  %3 = load ptr, ptr %2, align 8
  %4 = call noundef ptr @_ZNK7testing8internal11ThreadLocalIPNS_8SequenceEE16GetOrCreateValueEv(ptr noundef nonnull align 8 dereferenceable(16) %3)
  ret ptr %4
}

; Function Attrs: mustprogress uwtable
define linkonce_odr void @_ZN7testing8internal11ThreadLocalIPNS_8SequenceEE3setERKS3_(ptr noundef nonnull align 8 dereferenceable(16) %0, ptr noundef nonnull align 8 dereferenceable(8) %1) #4 comdat align 2 {
  %3 = alloca ptr, align 8
  %4 = alloca ptr, align 8
  store ptr %0, ptr %3, align 8, !tbaa !236
  store ptr %1, ptr %4, align 8, !tbaa !324
  %5 = load ptr, ptr %3, align 8
  %6 = load ptr, ptr %4, align 8, !tbaa !324
  %7 = load ptr, ptr %6, align 8, !tbaa !312
  %8 = call noundef ptr @_ZN7testing8internal11ThreadLocalIPNS_8SequenceEE7pointerEv(ptr noundef nonnull align 8 dereferenceable(16) %5)
  store ptr %7, ptr %8, align 8, !tbaa !312
  ret void
}

; Function Attrs: mustprogress uwtable
define linkonce_odr noundef nonnull align 8 dereferenceable(8) ptr @_ZNK7testing8internal11ThreadLocalIPNS_8SequenceEE3getEv(ptr noundef nonnull align 8 dereferenceable(16) %0) #4 comdat align 2 {
  %2 = alloca ptr, align 8
  store ptr %0, ptr %2, align 8, !tbaa !236
  %3 = load ptr, ptr %2, align 8
  %4 = call noundef ptr @_ZNK7testing8internal11ThreadLocalIPNS_8SequenceEE7pointerEv(ptr noundef nonnull align 8 dereferenceable(16) %3)
  ret ptr %4
}

; Function Attrs: mustprogress uwtable
define void @_ZN7testing10InSequenceC2Ev(ptr noundef nonnull align 1 dereferenceable(1) %0) unnamed_addr #4 align 2 personality ptr @__gxx_personality_v0 {
  %2 = alloca ptr, align 8
  %3 = alloca ptr, align 8
  %4 = alloca ptr, align 8
  %5 = alloca i32, align 4
  store ptr %0, ptr %2, align 8, !tbaa !320
  %6 = load ptr, ptr %2, align 8
  %7 = call noundef nonnull align 8 dereferenceable(8) ptr @_ZNK7testing8internal11ThreadLocalIPNS_8SequenceEE3getEv(ptr noundef nonnull align 8 dereferenceable(16) @_ZN7testing8internal25g_gmock_implicit_sequenceE)
  %8 = load ptr, ptr %7, align 8, !tbaa !312
  %9 = icmp eq ptr %8, null
  br i1 %9, label %10, label %18

10:                                               ; preds = %1
  call void @llvm.lifetime.start.p0(i64 8, ptr %3) #3
  %11 = call noalias noundef nonnull ptr @_Znwm(i64 noundef 16) #27
  invoke void @_ZN7testing8SequenceC2Ev(ptr noundef nonnull align 8 dereferenceable(16) %11)
          to label %12 unwind label %14

12:                                               ; preds = %10
  store ptr %11, ptr %3, align 8, !tbaa !312
  call void @_ZN7testing8internal11ThreadLocalIPNS_8SequenceEE3setERKS3_(ptr noundef nonnull align 8 dereferenceable(16) @_ZN7testing8internal25g_gmock_implicit_sequenceE, ptr noundef nonnull align 8 dereferenceable(8) %3)
  call void @llvm.lifetime.end.p0(i64 8, ptr %3) #3
  %13 = getelementptr inbounds nuw %"class.testing::InSequence", ptr %6, i32 0, i32 0
  store i8 1, ptr %13, align 1, !tbaa !322
  br label %20

14:                                               ; preds = %10
  %15 = landingpad { ptr, i32 }
          cleanup
  %16 = extractvalue { ptr, i32 } %15, 0
  store ptr %16, ptr %4, align 8
  %17 = extractvalue { ptr, i32 } %15, 1
  store i32 %17, ptr %5, align 4
  call void @_ZdlPvm(ptr noundef %11, i64 noundef 16) #28
  call void @llvm.lifetime.end.p0(i64 8, ptr %3) #3
  br label %21

18:                                               ; preds = %1
  %19 = getelementptr inbounds nuw %"class.testing::InSequence", ptr %6, i32 0, i32 0
  store i8 0, ptr %19, align 1, !tbaa !322
  br label %20

20:                                               ; preds = %18, %12
  ret void

21:                                               ; preds = %14
  %22 = load ptr, ptr %4, align 8
  %23 = load i32, ptr %5, align 4
  %24 = insertvalue { ptr, i32 } poison, ptr %22, 0
  %25 = insertvalue { ptr, i32 } %24, i32 %23, 1
  resume { ptr, i32 } %25
}