; Function Attrs: mustprogress uwtable
define void @_ZN7testing10InSequenceC2Ev(ptr noundef nonnull writeonly align 1 captures(none) dereferenceable(1) %0) unnamed_addr #3 align 2 personality ptr @__gxx_personality_v0 {
  %2 = tail call noundef nonnull align 8 dereferenceable(8) ptr @_ZNK7testing8internal11ThreadLocalIPNS_8SequenceEE16GetOrCreateValueEv(ptr noundef nonnull align 8 dereferenceable(16) @_ZN7testing8internal25g_gmock_implicit_sequenceE)
  %3 = load ptr, ptr %2, align 8, !tbaa !351
  %4 = icmp eq ptr %3, null
  br i1 %4, label %5, label %11

5:                                                ; preds = %1
  %6 = tail call noalias noundef nonnull dereferenceable(16) ptr @_Znwm(i64 noundef 16) #35
  invoke void @_ZN7testing8SequenceC2Ev(ptr noundef nonnull align 8 dereferenceable(16) %6)
          to label %7 unwind label %9

7:                                                ; preds = %5
  %8 = tail call noundef ptr @_ZNK7testing8internal11ThreadLocalIPNS_8SequenceEE16GetOrCreateValueEv(ptr noundef nonnull align 8 dereferenceable(16) @_ZN7testing8internal25g_gmock_implicit_sequenceE)
  store ptr %6, ptr %8, align 8, !tbaa !351
  br label %11

9:                                                ; preds = %5
  %10 = landingpad { ptr, i32 }
          cleanup
  tail call void @_ZdlPvm(ptr noundef nonnull %6, i64 noundef 16) #34
  resume { ptr, i32 } %10

11:                                               ; preds = %1, %7
  %storemerge = phi i8 [ 1, %7 ], [ 0, %1 ]
  store i8 %storemerge, ptr %0, align 1, !tbaa !353
  ret void
}